target datalayout = "e-m:e-p270:32:32-p271:32:32-p272:64:64-i64:64-i128:128-f80:128-n8:16:32:64-S128"
target triple = "x86_64-pc-linux-gnu"

%"class.google::protobuf::stringpiece_internal::StringPiece" = type { ptr, i64 }

; Function Attrs: mustprogress nounwind uwtable
define linkonce_odr hidden noundef ptr @_ZNK6google8protobuf20stringpiece_internal11StringPiece4dataEv(ptr noundef nonnull align 8 dereferenceable(16) %0) #2 comdat align 2 {
  %2 = alloca ptr, align 8
  store ptr %0, ptr %2, align 8, !tbaa !8
  %3 = load ptr, ptr %2, align 8
  %4 = getelementptr inbounds nuw %"class.google::protobuf::stringpiece_internal::StringPiece", ptr %3, i32 0, i32 0
  %5 = load ptr, ptr %4, align 8, !tbaa !10
  ret ptr %5
}

; Function Attrs: mustprogress nounwind uwtable
define linkonce_odr hidden noundef i64 @_ZNK6google8protobuf20stringpiece_internal11StringPiece6lengthEv(ptr noundef nonnull align 8 dereferenceable(16) %0) #2 comdat align 2 {
  %2 = alloca ptr, align 8
  store ptr %0, ptr %2, align 8, !tbaa !8
  %3 = load ptr, ptr %2, align 8
  %4 = getelementptr inbounds nuw %"class.google::protobuf::stringpiece_internal::StringPiece", ptr %3, i32 0, i32 1
  %5 = load i64, ptr %4, align 8, !tbaa !14
  ret i64 %5
}

; Function Attrs: inlinehint mustprogress uwtable
define internal void @_ZN6google8protobuf20stringpiece_internalL16BuildLookupTableENS1_11StringPieceEPb(ptr %0, i64 %1, ptr noundef %2) #7 {
  %4 = alloca %"class.google::protobuf::stringpiece_internal::StringPiece", align 8
  %5 = alloca ptr, align 8
  %6 = alloca i64, align 8
  %7 = alloca ptr, align 8
  %8 = alloca i64, align 8
  %9 = getelementptr inbounds nuw { ptr, i64 }, ptr %4, i32 0, i32 0
  store ptr %0, ptr %9, align 8
  %10 = getelementptr inbounds nuw { ptr, i64 }, ptr %4, i32 0, i32 1
  store i64 %1, ptr %10, align 8
  store ptr %2, ptr %5, align 8, !tbaa !30
  call void @llvm.lifetime.start.p0(i64 8, ptr %6) #13
  %11 = call noundef i64 @_ZNK6google8protobuf20stringpiece_internal11StringPiece6lengthEv(ptr noundef nonnull align 8 dereferenceable(16) %4)
  store i64 %11, ptr %6, align 8, !tbaa !15
  call void @llvm.lifetime.start.p0(i64 8, ptr %7) #13
  %12 = call noundef ptr @_ZNK6google8protobuf20stringpiece_internal11StringPiece4dataEv(ptr noundef nonnull align 8 dereferenceable(16) %4)
  store ptr %12, ptr %7, align 8, !tbaa !16
  call void @llvm.lifetime.start.p0(i64 8, ptr %8) #13
  store i64 0, ptr %8, align 8, !tbaa !15
  br label %13

13:                                               ; preds = %26, %3
  %14 = load i64, ptr %8, align 8, !tbaa !15
  %15 = load i64, ptr %6, align 8, !tbaa !15
  %16 = icmp ult i64 %14, %15
  br i1 %16, label %18, label %17

17:                                               ; preds = %13
  call void @llvm.lifetime.end.p0(i64 8, ptr %8) #13
  br label %29

18:                                               ; preds = %13
  %19 = load ptr, ptr %5, align 8, !tbaa !30
  %20 = load ptr, ptr %7, align 8, !tbaa !16
  %21 = load i64, ptr %8, align 8, !tbaa !15
  %22 = getelementptr inbounds nuw i8, ptr %20, i64 %21
  %23 = load i8, ptr %22, align 1, !tbaa !22
  %24 = zext i8 %23 to i64
  %25 = getelementptr inbounds nuw i8, ptr %19, i64 %24
  store i8 1, ptr %25, align 1, !tbaa !25
  br label %26

26:                                               ; preds = %18
  %27 = load i64, ptr %8, align 8, !tbaa !15
  %28 = add i64 %27, 1
  store i64 %28, ptr %8, align 8, !tbaa !15
  br label %13, !llvm.loop !32

29:                                               ; preds = %17
  call void @llvm.lifetime.end.p0(i64 8, ptr %7) #13
  call void @llvm.lifetime.end.p0(i64 8, ptr %6) #13
  ret void
}

; Function Attrs: mustprogress uwtable
define hidden noundef i64 @_ZNK6google8protobuf20stringpiece_internal11StringPiece17find_first_not_ofEcm(ptr noundef nonnull align 8 dereferenceable(16) %0, i8 noundef signext %1, i64 noundef %2) #0 align 2 {
  %4 = alloca i64, align 8
  %5 = alloca ptr, align 8
  %6 = alloca i8, align 1
  %7 = alloca i64, align 8
  store ptr %0, ptr %5, align 8, !tbaa !8
  store i8 %1, ptr %6, align 1, !tbaa !22
  store i64 %2, ptr %7, align 8, !tbaa !15
  %8 = load ptr, ptr %5, align 8
  %9 = call noundef zeroext i1 @_ZNK6google8protobuf20stringpiece_internal11StringPiece5emptyEv(ptr noundef nonnull align 8 dereferenceable(16) %8)
  br i1 %9, label %10, label %11

10:                                               ; preds = %3
  store i64 -1, ptr %4, align 8
  br label %34

11:                                               ; preds = %3
  br label %12

12:                                               ; preds = %30, %11
  %13 = load i64, ptr %7, align 8, !tbaa !15
  %14 = getelementptr inbounds nuw %"class.google::protobuf::stringpiece_internal::StringPiece", ptr %8, i32 0, i32 1
  %15 = load i64, ptr %14, align 8, !tbaa !14
  %16 = icmp ult i64 %13, %15
  br i1 %16, label %17, label %33

17:                                               ; preds = %12
  %18 = getelementptr inbounds nuw %"class.google::protobuf::stringpiece_internal::StringPiece", ptr %8, i32 0, i32 0
  %19 = load ptr, ptr %18, align 8, !tbaa !10
  %20 = load i64, ptr %7, align 8, !tbaa !15
  %21 = getelementptr inbounds nuw i8, ptr %19, i64 %20
  %22 = load i8, ptr %21, align 1, !tbaa !22
  %23 = sext i8 %22 to i32
  %24 = load i8, ptr %6, align 1, !tbaa !22
  %25 = sext i8 %24 to i32
  %26 = icmp ne i32 %23, %25
  br i1 %26, label %27, label %29

27:                                               ; preds = %17
  %28 = load i64, ptr %7, align 8, !tbaa !15
  store i64 %28, ptr %4, align 8
  br label %34

29:                                               ; preds = %17
  br label %30

30:                                               ; preds = %29
  %31 = load i64, ptr %7, align 8, !tbaa !15
  %32 = add i64 %31, 1
  store i64 %32, ptr %7, align 8, !tbaa !15
  br label %12, !llvm.loop !34

33:                                               ; preds = %12
  store i64 -1, ptr %4, align 8
  br label %34

34:                                               ; preds = %33, %27, %10
  %35 = load i64, ptr %4, align 8
  ret i64 %35
}

; Function Attrs: mustprogress nounwind uwtable
define linkonce_odr hidden noundef zeroext i1 @_ZNK6google8protobuf20stringpiece_internal11StringPiece5emptyEv(ptr noundef nonnull align 8 dereferenceable(16) %0) #2 comdat align 2 {
  %2 = alloca ptr, align 8
  store ptr %0, ptr %2, align 8, !tbaa !8
  %3 = load ptr, ptr %2, align 8
  %4 = getelementptr inbounds nuw %"class.google::protobuf::stringpiece_internal::StringPiece", ptr %3, i32 0, i32 1
  %5 = load i64, ptr %4, align 8, !tbaa !14
  %6 = icmp eq i64 %5, 0
  ret i1 %6
}

; Function Attrs: mustprogress uwtable
define hidden noundef i64 @_ZNK6google8protobuf20stringpiece_internal11StringPiece17find_first_not_ofES2_m(ptr noundef nonnull align 8 dereferenceable(16) %0, ptr %1, i64 %2, i64 noundef %3) #0 align 2 {
  %5 = alloca i64, align 8
  %6 = alloca %"class.google::protobuf::stringpiece_internal::StringPiece", align 8
  %7 = alloca ptr, align 8
  %8 = alloca i64, align 8
  %9 = alloca [256 x i8], align 16
  %10 = alloca %"class.google::protobuf::stringpiece_internal::StringPiece", align 8
  %11 = alloca i64, align 8
  %12 = alloca i32, align 4
  %13 = getelementptr inbounds nuw { ptr, i64 }, ptr %6, i32 0, i32 0
  store ptr %1, ptr %13, align 8
  %14 = getelementptr inbounds nuw { ptr, i64 }, ptr %6, i32 0, i32 1
  store i64 %2, ptr %14, align 8
  store ptr %0, ptr %7, align 8, !tbaa !8
  store i64 %3, ptr %8, align 8, !tbaa !15
  %15 = load ptr, ptr %7, align 8
  %16 = call noundef zeroext i1 @_ZNK6google8protobuf20stringpiece_internal11StringPiece5emptyEv(ptr noundef nonnull align 8 dereferenceable(16) %15)
  br i1 %16, label %17, label %18

17:                                               ; preds = %4
  store i64 -1, ptr %5, align 8
  br label %65

18:                                               ; preds = %4
  %19 = call noundef zeroext i1 @_ZNK6google8protobuf20stringpiece_internal11StringPiece5emptyEv(ptr noundef nonnull align 8 dereferenceable(16) %6)
  br i1 %19, label %20, label %21

20:                                               ; preds = %18
  store i64 0, ptr %5, align 8
  br label %65

21:                                               ; preds = %18
  %22 = getelementptr inbounds nuw %"class.google::protobuf::stringpiece_internal::StringPiece", ptr %6, i32 0, i32 1
  %23 = load i64, ptr %22, align 8, !tbaa !14
  %24 = icmp eq i64 %23, 1
  br i1 %24, label %25, label %32

25:                                               ; preds = %21
  %26 = getelementptr inbounds nuw %"class.google::protobuf::stringpiece_internal::StringPiece", ptr %6, i32 0, i32 0
  %27 = load ptr, ptr %26, align 8, !tbaa !10
  %28 = getelementptr inbounds i8, ptr %27, i64 0
  %29 = load i8, ptr %28, align 1, !tbaa !22
  %30 = load i64, ptr %8, align 8, !tbaa !15
  %31 = call noundef i64 @_ZNK6google8protobuf20stringpiece_internal11StringPiece17find_first_not_ofEcm(ptr noundef nonnull align 8 dereferenceable(16) %15, i8 noundef signext %29, i64 noundef %30)
  store i64 %31, ptr %5, align 8
  br label %65

32:                                               ; preds = %21
  call void @llvm.lifetime.start.p0(i64 256, ptr %9) #13
  call void @llvm.memset.p0.i64(ptr align 16 %9, i8 0, i64 256, i1 false)
  call void @llvm.memcpy.p0.p0.i64(ptr align 8 %10, ptr align 8 %6, i64 16, i1 false), !tbaa.struct !19
  %33 = getelementptr inbounds [256 x i8], ptr %9, i64 0, i64 0
  %34 = getelementptr inbounds nuw { ptr, i64 }, ptr %10, i32 0, i32 0
  %35 = load ptr, ptr %34, align 8
  %36 = getelementptr inbounds nuw { ptr, i64 }, ptr %10, i32 0, i32 1
  %37 = load i64, ptr %36, align 8
  call void @_ZN6google8protobuf20stringpiece_internalL16BuildLookupTableENS1_11StringPieceEPb(ptr %35, i64 %37, ptr noundef %33)
  call void @llvm.lifetime.start.p0(i64 8, ptr %11) #13
  %38 = load i64, ptr %8, align 8, !tbaa !15
  store i64 %38, ptr %11, align 8, !tbaa !15
  br label %39

39:                                               ; preds = %58, %32
  %40 = load i64, ptr %11, align 8, !tbaa !15
  %41 = getelementptr inbounds nuw %"class.google::protobuf::stringpiece_internal::StringPiece", ptr %15, i32 0, i32 1
  %42 = load i64, ptr %41, align 8, !tbaa !14
  %43 = icmp ult i64 %40, %42
  br i1 %43, label %45, label %44

44:                                               ; preds = %39
  store i32 2, ptr %12, align 4
  br label %61

45:                                               ; preds = %39
  %46 = getelementptr inbounds nuw %"class.google::protobuf::stringpiece_internal::StringPiece", ptr %15, i32 0, i32 0
  %47 = load ptr, ptr %46, align 8, !tbaa !10
  %48 = load i64, ptr %11, align 8, !tbaa !15
  %49 = getelementptr inbounds nuw i8, ptr %47, i64 %48
  %50 = load i8, ptr %49, align 1, !tbaa !22
  %51 = zext i8 %50 to i64
  %52 = getelementptr inbounds nuw [256 x i8], ptr %9, i64 0, i64 %51
  %53 = load i8, ptr %52, align 1, !tbaa !25, !range !27, !noundef !28
  %54 = trunc i8 %53 to i1
  br i1 %54, label %57, label %55

55:                                               ; preds = %45
  %56 = load i64, ptr %11, align 8, !tbaa !15
  store i64 %56, ptr %5, align 8
  store i32 1, ptr %12, align 4
  br label %61

57:                                               ; preds = %45
  br label %58

58:                                               ; preds = %57
  %59 = load i64, ptr %11, align 8, !tbaa !15
  %60 = add i64 %59, 1
  store i64 %60, ptr %11, align 8, !tbaa !15
  br label %39, !llvm.loop !33

61:                                               ; preds = %55, %44
  call void @llvm.lifetime.end.p0(i64 8, ptr %11) #13
  %62 = load i32, ptr %12, align 4
  switch i32 %62, label %64 [
    i32 2, label %63
  ]

63:                                               ; preds = %61
  store i64 -1, ptr %5, align 8
  store i32 1, ptr %12, align 4
  br label %64

64:                                               ; preds = %63, %61
  call void @llvm.lifetime.end.p0(i64 256, ptr %9) #13
  br label %65

65:                                               ; preds = %64, %25, %20, %17
  %66 = load i64, ptr %5, align 8
  ret i64 %66
}