; Function Attrs: mustprogress nofree norecurse nosync nounwind willreturn memory(read, inaccessiblemem: none) uwtable
define hidden noundef i64 @_ZNK6google8protobuf20stringpiece_internal11StringPiece17find_first_not_ofES2_m(ptr noundef nonnull readonly align 8 captures(none) dereferenceable(16) %0, ptr readonly captures(none) %1, i64 %2, i64 noundef %3) local_unnamed_addr #9 align 2 {
  %5 = alloca [256 x i8], align 16
  %6 = getelementptr inbounds nuw i8, ptr %0, i64 8
  %7 = load i64, ptr %6, align 8, !tbaa !10
  %8 = icmp eq i64 %7, 0
  br i1 %8, label %_ZNK6google8protobuf20stringpiece_internal11StringPiece17find_first_not_ofEcm.exit, label %9

9:                                                ; preds = %4
  switch i64 %2, label %19 [
    i64 0, label %_ZNK6google8protobuf20stringpiece_internal11StringPiece17find_first_not_ofEcm.exit
    i64 1, label %10
  ]

10:                                               ; preds = %9
  %11 = load i8, ptr %1, align 1, !tbaa !16
  %12 = icmp ult i64 %3, %7
  br i1 %12, label %.lr.ph.i, label %_ZNK6google8protobuf20stringpiece_internal11StringPiece17find_first_not_ofEcm.exit

.lr.ph.i:                                         ; preds = %10
  %13 = load ptr, ptr %0, align 8, !tbaa !3
  br label %14

14:                                               ; preds = %17, %.lr.ph.i
  %.07.i = phi i64 [ %3, %.lr.ph.i ], [ %18, %17 ]
  %15 = getelementptr inbounds nuw i8, ptr %13, i64 %.07.i
  %16 = load i8, ptr %15, align 1, !tbaa !16
  %.not.i = icmp eq i8 %16, %11
  br i1 %.not.i, label %17, label %_ZNK6google8protobuf20stringpiece_internal11StringPiece17find_first_not_ofEcm.exit

17:                                               ; preds = %14
  %18 = add i64 %.07.i, 1
  %exitcond.not.i = icmp eq i64 %18, %7
  br i1 %exitcond.not.i, label %_ZNK6google8protobuf20stringpiece_internal11StringPiece17find_first_not_ofEcm.exit, label %14, !llvm.loop !25

19:                                               ; preds = %9
  call void @llvm.lifetime.start.p0(i64 256, ptr nonnull %5) #15
  call void @llvm.memset.p0.i64(ptr noundef nonnull align 16 dereferenceable(256) %5, i8 0, i64 256, i1 false)
  br label %.lr.ph.i11

.lr.ph.i11:                                       ; preds = %19, %.lr.ph.i11
  %.05.i = phi i64 [ %24, %.lr.ph.i11 ], [ 0, %19 ]
  %20 = getelementptr inbounds nuw i8, ptr %1, i64 %.05.i
  %21 = load i8, ptr %20, align 1, !tbaa !16
  %22 = zext i8 %21 to i64
  %23 = getelementptr inbounds nuw i8, ptr %5, i64 %22
  store i8 1, ptr %23, align 1, !tbaa !19
  %24 = add nuw i64 %.05.i, 1
  %exitcond.not.i12 = icmp eq i64 %24, %2
  br i1 %exitcond.not.i12, label %_ZN6google8protobuf20stringpiece_internalL16BuildLookupTableENS1_11StringPieceEPb.exit.preheader, label %.lr.ph.i11, !llvm.loop !21

_ZN6google8protobuf20stringpiece_internalL16BuildLookupTableENS1_11StringPieceEPb.exit.preheader: ; preds = %.lr.ph.i11
  %.not15 = icmp ult i64 %3, %7
  br i1 %.not15, label %.lr.ph, label %._crit_edge

.lr.ph:                                           ; preds = %_ZN6google8protobuf20stringpiece_internalL16BuildLookupTableENS1_11StringPieceEPb.exit.preheader
  %25 = load ptr, ptr %0, align 8, !tbaa !3
  br label %26

26:                                               ; preds = %.lr.ph, %_ZN6google8protobuf20stringpiece_internalL16BuildLookupTableENS1_11StringPieceEPb.exit
  %.0816 = phi i64 [ %3, %.lr.ph ], [ %33, %_ZN6google8protobuf20stringpiece_internalL16BuildLookupTableENS1_11StringPieceEPb.exit ]
  %27 = getelementptr inbounds nuw i8, ptr %25, i64 %.0816
  %28 = load i8, ptr %27, align 1, !tbaa !16
  %29 = zext i8 %28 to i64
  %30 = getelementptr inbounds nuw [256 x i8], ptr %5, i64 0, i64 %29
  %31 = load i8, ptr %30, align 1, !tbaa !19, !range !22, !noundef !23
  %32 = trunc nuw i8 %31 to i1
  br i1 %32, label %_ZN6google8protobuf20stringpiece_internalL16BuildLookupTableENS1_11StringPieceEPb.exit, label %._crit_edge

_ZN6google8protobuf20stringpiece_internalL16BuildLookupTableENS1_11StringPieceEPb.exit: ; preds = %26
  %33 = add i64 %.0816, 1
  %exitcond.not = icmp eq i64 %33, %7
  br i1 %exitcond.not, label %._crit_edge, label %26, !llvm.loop !26

._crit_edge:                                      ; preds = %_ZN6google8protobuf20stringpiece_internalL16BuildLookupTableENS1_11StringPieceEPb.exit, %26, %_ZN6google8protobuf20stringpiece_internalL16BuildLookupTableENS1_11StringPieceEPb.exit.preheader
  %spec.select = phi i64 [ -1, %_ZN6google8protobuf20stringpiece_internalL16BuildLookupTableENS1_11StringPieceEPb.exit.preheader ], [ %.0816, %26 ], [ -1, %_ZN6google8protobuf20stringpiece_internalL16BuildLookupTableENS1_11StringPieceEPb.exit ]
  call void @llvm.lifetime.end.p0(i64 256, ptr nonnull %5) #15
  br label %_ZNK6google8protobuf20stringpiece_internal11StringPiece17find_first_not_ofEcm.exit

_ZNK6google8protobuf20stringpiece_internal11StringPiece17find_first_not_ofEcm.exit: ; preds = %17, %14, %9, %10, %4, %._crit_edge
  %.09 = phi i64 [ %spec.select, %._crit_edge ], [ -1, %4 ], [ %2, %9 ], [ -1, %10 ], [ -1, %17 ], [ %.07.i, %14 ]
  ret i64 %.09
}